target datalayout = "e-m:e-p270:32:32-p271:32:32-p272:64:64-i64:64-i128:128-f80:128-n8:16:32:64-S128"
target triple = "x86_64-pc-linux-gnu"

%struct.llama_sampler = type { ptr, ptr }
%struct.llama_sampler_temp_ext = type { float, float, float }

; Function Attrs: mustprogress uwtable
define ptr @llama_sampler_init(ptr noundef %0, ptr noundef %1) #0 {
  %3 = alloca ptr, align 8
  %4 = alloca ptr, align 8
  store ptr %0, ptr %3, align 8, !tbaa !3
  store ptr %1, ptr %4, align 8, !tbaa !8
  %5 = call noalias noundef nonnull ptr @_Znwm(i64 noundef 16) #19
  %6 = getelementptr inbounds nuw %struct.llama_sampler, ptr %5, i32 0, i32 0
  %7 = load ptr, ptr %3, align 8, !tbaa !3
  store ptr %7, ptr %6, align 16, !tbaa !9
  %8 = getelementptr inbounds nuw %struct.llama_sampler, ptr %5, i32 0, i32 1
  %9 = load ptr, ptr %4, align 8, !tbaa !8
  store ptr %9, ptr %8, align 8, !tbaa !11
  ret ptr %5
}

; Function Attrs: mustprogress uwtable
define ptr @llama_sampler_init_temp_ext(float noundef %0, float noundef %1, float noundef %2) #0 {
  %4 = alloca float, align 4
  %5 = alloca float, align 4
  %6 = alloca float, align 4
  store float %0, ptr %4, align 4, !tbaa !36
  store float %1, ptr %5, align 4, !tbaa !36
  store float %2, ptr %6, align 4, !tbaa !36
  %7 = call noalias noundef nonnull ptr @_Znwm(i64 noundef 12) #19
  %8 = getelementptr inbounds nuw %struct.llama_sampler_temp_ext, ptr %7, i32 0, i32 0
  %9 = load float, ptr %4, align 4, !tbaa !36
  store float %9, ptr %8, align 8, !tbaa !107
  %10 = getelementptr inbounds nuw %struct.llama_sampler_temp_ext, ptr %7, i32 0, i32 1
  %11 = load float, ptr %5, align 4, !tbaa !36
  store float %11, ptr %10, align 4, !tbaa !109
  %12 = getelementptr inbounds nuw %struct.llama_sampler_temp_ext, ptr %7, i32 0, i32 2
  %13 = load float, ptr %6, align 4, !tbaa !36
  store float %13, ptr %12, align 8, !tbaa !110
  %14 = call ptr @llama_sampler_init(ptr noundef @_ZL24llama_sampler_temp_ext_i, ptr noundef %7)
  ret ptr %14
}