; Function Attrs: mustprogress uwtable
define noalias noundef nonnull ptr @llama_sampler_init_temp_ext(float noundef %0, float noundef %1, float noundef %2) local_unnamed_addr #0 {
  %4 = tail call noalias noundef nonnull dereferenceable(12) ptr @_Znwm(i64 noundef 12) #30
  store float %0, ptr %4, align 8, !tbaa !72
  %5 = getelementptr inbounds nuw i8, ptr %4, i64 4
  store float %1, ptr %5, align 4, !tbaa !74
  %6 = getelementptr inbounds nuw i8, ptr %4, i64 8
  store float %2, ptr %6, align 8, !tbaa !75
  %7 = tail call noalias noundef nonnull dereferenceable(16) ptr @_Znwm(i64 noundef 16) #30
  store ptr @_ZL24llama_sampler_temp_ext_i, ptr %7, align 16, !tbaa !3
  %8 = getelementptr inbounds nuw i8, ptr %7, i64 8
  store ptr %4, ptr %8, align 8, !tbaa !9
  ret ptr %7
}